; Function Attrs: mustprogress uwtable
define void @_ZN9grpc_core8internal41alts_handshaker_client_set_cb_for_testingEP22alts_handshaker_clientPFv10tsi_resultPvPKhmP21tsi_handshaker_resultE(ptr noundef writeonly %c, ptr noundef %cb) local_unnamed_addr #3 {
entry:
  %cmp.not = icmp eq ptr %c, null
  br i1 %cmp.not, label %if.then, label %do.end

if.then:                                          ; preds = %entry
  tail call void @gpr_assertion_failed(ptr noundef nonnull @.str, i32 noundef 847, ptr noundef nonnull @.str.1) #17
  unreachable

do.end:                                           ; preds = %entry
  %cb1 = getelementptr inbounds i8, ptr %c, i64 120
  store ptr %cb, ptr %cb1, align 8
  ret void
}